target datalayout = "e-m:e-p270:32:32-p271:32:32-p272:64:64-i64:64-i128:128-f80:128-n8:16:32:64-S128"
target triple = "x86_64-pc-linux-gnu"

%class.MainApplication = type { %class.QApplication, %class.QTranslator, %class.QTranslator, i8, i8, [6 x i8], %class.QFont, %class.QFont, %class.QTimer, %class.QTimer, %class.QTimer, %class.QList.1, ptr, %class.QList.5, i32, %class.QIcon, %class.QIcon }
%class.QApplication = type { %class.QGuiApplication }
%class.QGuiApplication = type { %class.QCoreApplication }
%class.QCoreApplication = type { %class.QObject }
%class.QObject = type { ptr, %class.QScopedPointer }
%class.QScopedPointer = type { ptr }
%class.QTranslator = type { %class.QObject }
%class.QFont = type <{ %class.QExplicitlySharedDataPointer, i32, [4 x i8] }>
%class.QExplicitlySharedDataPointer = type { ptr }
%class.QTimer = type { %class.QObject }
%class.QList.1 = type { %struct.QArrayDataPointer.4 }
%struct.QArrayDataPointer.4 = type { ptr, ptr, i64 }
%class.QList.5 = type { %struct.QArrayDataPointer.8 }
%struct.QArrayDataPointer.8 = type { ptr, ptr, i64 }
%class.QIcon = type { ptr }

; Function Attrs: mustprogress uwtable
define noundef nonnull align 8 dereferenceable(8) ptr @_ZN15MainApplication10normalIconEv(ptr noundef nonnull align 8 dereferenceable(216) %0) #4 align 2 {
  %2 = alloca ptr, align 8
  store ptr %0, ptr %2, align 8
  %3 = load ptr, ptr %2, align 8
  %4 = getelementptr inbounds %class.MainApplication, ptr %3, i32 0, i32 15
  %5 = call noundef zeroext i1 @_ZNK5QIcon6isNullEv(ptr noundef nonnull align 8 dereferenceable(8) %4)
  br i1 %5, label %6, label %10

6:                                                ; preds = %1
  %7 = load ptr, ptr %3, align 8
  %8 = getelementptr inbounds ptr, ptr %7, i64 15
  %9 = load ptr, ptr %8, align 8
  call void %9(ptr noundef nonnull align 8 dereferenceable(216) %3)
  br label %10

10:                                               ; preds = %6, %1
  %11 = getelementptr inbounds %class.MainApplication, ptr %3, i32 0, i32 15
  ret ptr %11
}