; Function Attrs: mustprogress uwtable
define noundef nonnull align 8 dereferenceable(8) ptr @_ZN15MainApplication10normalIconEv(ptr noundef nonnull align 8 dereferenceable(216) %0) local_unnamed_addr #3 align 2 {
  %2 = getelementptr inbounds i8, ptr %0, i64 200
  %3 = tail call noundef zeroext i1 @_ZNK5QIcon6isNullEv(ptr noundef nonnull align 8 dereferenceable(8) %2)
  br i1 %3, label %4, label %8

4:                                                ; preds = %1
  %5 = load ptr, ptr %0, align 8
  %6 = getelementptr inbounds i8, ptr %5, i64 120
  %7 = load ptr, ptr %6, align 8
  tail call void %7(ptr noundef nonnull align 8 dereferenceable(216) %0)
  br label %8

8:                                                ; preds = %4, %1
  ret ptr %2
}